; Function Attrs: mustprogress uwtable
define noundef zeroext i1 @_ZN32pxrInternal_v0_24__pxrReserved__17UsdSkelBindingAPI20ValidateJointIndicesENS_6TfSpanIKiEEmPNSt7__cxx1112basic_stringIcSt11char_traitsIcESaIcEEE(ptr nocapture readonly %0, i64 %1, i64 noundef %2, ptr noundef %3) local_unnamed_addr #0 align 2 {
  %5 = alloca %"class.std::__cxx11::basic_string", align 8
  %6 = icmp eq i64 %1, 0
  br i1 %6, label %.loopexit, label %.lr.ph

.lr.ph:                                           ; preds = %4, %14
  %.01118 = phi i64 [ %15, %14 ], [ 0, %4 ]
  %7 = getelementptr inbounds i32, ptr %0, i64 %.01118
  %8 = load i32, ptr %7, align 4
  %9 = icmp sgt i32 %8, -1
  %10 = zext nneg i32 %8 to i64
  %.not = icmp ugt i64 %2, %10
  %or.cond = select i1 %9, i1 %.not, i1 false
  br i1 %or.cond, label %14, label %11

11:                                               ; preds = %.lr.ph
  %.not14 = icmp eq ptr %3, null
  br i1 %.not14, label %.loopexit, label %12

12:                                               ; preds = %11
  call void (ptr, ptr, ...) @_ZN32pxrInternal_v0_24__pxrReserved__14TfStringPrintfB5cxx11EPKcz(ptr dead_on_unwind nonnull writable sret(%"class.std::__cxx11::basic_string") align 8 %5, ptr noundef nonnull @.str.9, i32 noundef %8, i64 noundef %.01118, i64 noundef %2)
  %13 = call noundef nonnull align 8 dereferenceable(32) ptr @_ZNSt7__cxx1112basic_stringIcSt11char_traitsIcESaIcEEaSEOS4_(ptr noundef nonnull align 8 dereferenceable(32) %3, ptr noundef nonnull align 8 dereferenceable(32) %5) #16
  call void @_ZNSt7__cxx1112basic_stringIcSt11char_traitsIcESaIcEED1Ev(ptr noundef nonnull align 8 dereferenceable(32) %5) #16
  br label %.loopexit

14:                                               ; preds = %.lr.ph
  %15 = add nuw i64 %.01118, 1
  %exitcond.not = icmp eq i64 %15, %1
  br i1 %exitcond.not, label %.loopexit, label %.lr.ph, !llvm.loop !30

.loopexit:                                        ; preds = %14, %4, %11, %12
  %16 = phi i1 [ false, %11 ], [ false, %12 ], [ true, %4 ], [ true, %14 ]
  ret i1 %16
}